; Function Attrs: mustprogress uwtable
define noundef ptr @_ZN5arrow8internal7CpuInfo11GetInstanceEv() local_unnamed_addr #1 align 2 personality ptr @__gxx_personality_v0 {
  %1 = load atomic i8, ptr @_ZGVZN5arrow8internal7CpuInfo11GetInstanceEvE8cpu_info acquire, align 8
  %2 = icmp eq i8 %1, 0
  br i1 %2, label %3, label %8, !prof !90

3:                                                ; preds = %0
  %4 = tail call i32 @__cxa_guard_acquire(ptr nonnull @_ZGVZN5arrow8internal7CpuInfo11GetInstanceEvE8cpu_info) #24
  %.not = icmp eq i32 %4, 0
  br i1 %.not, label %8, label %5

5:                                                ; preds = %3
  invoke void @_ZN5arrow8internal7CpuInfoC1Ev(ptr noundef nonnull align 8 dereferenceable(8) @_ZZN5arrow8internal7CpuInfo11GetInstanceEvE8cpu_info)
          to label %6 unwind label %9

6:                                                ; preds = %5
  %7 = tail call i32 @__cxa_atexit(ptr nonnull @_ZN5arrow8internal7CpuInfoD1Ev, ptr nonnull @_ZZN5arrow8internal7CpuInfo11GetInstanceEvE8cpu_info, ptr nonnull @__dso_handle) #24
  tail call void @__cxa_guard_release(ptr nonnull @_ZGVZN5arrow8internal7CpuInfo11GetInstanceEvE8cpu_info) #24
  br label %8

8:                                                ; preds = %6, %3, %0
  ret ptr @_ZZN5arrow8internal7CpuInfo11GetInstanceEvE8cpu_info

9:                                                ; preds = %5
  %10 = landingpad { ptr, i32 }
          cleanup
  tail call void @__cxa_guard_abort(ptr nonnull @_ZGVZN5arrow8internal7CpuInfo11GetInstanceEvE8cpu_info) #24
  resume { ptr, i32 } %10
}